target datalayout = "e-m:e-p270:32:32-p271:32:32-p272:64:64-i64:64-i128:128-f80:128-n8:16:32:64-S128"
target triple = "x86_64-pc-linux-gnu"

%"class.std::__cxx11::basic_string" = type { %"struct.std::__cxx11::basic_string<char>::_Alloc_hider", i64, %union.anon }
%"struct.std::__cxx11::basic_string<char>::_Alloc_hider" = type { ptr }
%union.anon = type { i64, [8 x i8] }
%class.cmListFileBacktrace = type { %class.cmConstStack }
%class.cmConstStack = type { %"class.std::shared_ptr" }
%"class.std::shared_ptr" = type { %"class.std::__shared_ptr" }
%"class.std::__shared_ptr" = type { ptr, %"class.std::__shared_count" }
%"class.std::__shared_count" = type { ptr }
%class.cmInstallDirectoryGenerator = type <{ %class.cmInstallGenerator, ptr, %"class.std::vector", %"class.std::__cxx11::basic_string", %"class.std::__cxx11::basic_string", %"class.std::__cxx11::basic_string", i8, [7 x i8] }>
%class.cmInstallGenerator = type { %class.cmScriptGenerator.base, %"class.std::__cxx11::basic_string", %"class.std::__cxx11::basic_string", i32, i8, i8, %class.cmListFileBacktrace }
%class.cmScriptGenerator.base = type <{ ptr, %"class.std::__cxx11::basic_string", %"class.std::vector", %"class.std::__cxx11::basic_string", ptr, i8 }>
%"class.std::vector" = type { %"struct.std::_Vector_base" }
%"struct.std::_Vector_base" = type { %"struct.std::_Vector_base<std::__cxx11::basic_string<char>, std::allocator<std::__cxx11::basic_string<char>>>::_Vector_impl" }
%"struct.std::_Vector_base<std::__cxx11::basic_string<char>, std::allocator<std::__cxx11::basic_string<char>>>::_Vector_impl" = type { %"struct.std::_Vector_base<std::__cxx11::basic_string<char>, std::allocator<std::__cxx11::basic_string<char>>>::_Vector_impl_data" }
%"struct.std::_Vector_base<std::__cxx11::basic_string<char>, std::allocator<std::__cxx11::basic_string<char>>>::_Vector_impl_data" = type { ptr, ptr, ptr }
%class.cmScriptGenerator = type <{ ptr, %"class.std::__cxx11::basic_string", %"class.std::vector", %"class.std::__cxx11::basic_string", ptr, i8, [7 x i8] }>
%class.cmScriptGeneratorIndent = type { i32 }
%"class.std::allocator" = type { i8 }

@.str = private unnamed_addr constant [1 x i8] zeroinitializer, align 1
@.str.3 = private unnamed_addr constant [50 x i8] c"basic_string: construction from null is not valid\00", align 1

; Function Attrs: mustprogress nounwind uwtable
define linkonce_odr dso_local noundef i64 @_ZNSt11char_traitsIcE6lengthEPKc(ptr noundef %0) #5 comdat align 2 {
  %2 = alloca ptr, align 8
  store ptr %0, ptr %2, align 8
  %3 = load ptr, ptr %2, align 8
  %4 = call i64 @strlen(ptr noundef %3) #3
  ret i64 %4
}

; Function Attrs: mustprogress nounwind uwtable
define linkonce_odr dso_local void @_ZNSt7__cxx1112basic_stringIcSt11char_traitsIcESaIcEE12_Alloc_hiderD2Ev(ptr noundef nonnull align 8 dereferenceable(8) %0) unnamed_addr #5 comdat align 2 {
  %2 = alloca ptr, align 8
  store ptr %0, ptr %2, align 8
  %3 = load ptr, ptr %2, align 8
  call void @_ZNSaIcED2Ev(ptr noundef nonnull align 1 dereferenceable(1) %3) #3
  ret void
}

; Function Attrs: mustprogress uwtable
define linkonce_odr dso_local void @_ZNSt7__cxx1112basic_stringIcSt11char_traitsIcESaIcEEC2IS3_EEPKcRKS3_(ptr noundef nonnull align 8 dereferenceable(32) %0, ptr noundef %1, ptr noundef nonnull align 1 dereferenceable(1) %2) unnamed_addr #4 comdat align 2 personality ptr @__gxx_personality_v0 {
  %4 = alloca ptr, align 8
  %5 = alloca ptr, align 8
  %6 = alloca ptr, align 8
  %7 = alloca ptr, align 8
  %8 = alloca i32, align 4
  %9 = alloca ptr, align 8
  store ptr %0, ptr %4, align 8
  store ptr %1, ptr %5, align 8
  store ptr %2, ptr %6, align 8
  %10 = load ptr, ptr %4, align 8
  %11 = getelementptr inbounds %"class.std::__cxx11::basic_string", ptr %10, i32 0, i32 0
  %12 = call noundef ptr @_ZNSt7__cxx1112basic_stringIcSt11char_traitsIcESaIcEE13_M_local_dataEv(ptr noundef nonnull align 8 dereferenceable(32) %10)
  %13 = load ptr, ptr %6, align 8
  call void @_ZNSt7__cxx1112basic_stringIcSt11char_traitsIcESaIcEE12_Alloc_hiderC1EPcRKS3_(ptr noundef nonnull align 8 dereferenceable(8) %11, ptr noundef %12, ptr noundef nonnull align 1 dereferenceable(1) %13)
  %14 = load ptr, ptr %5, align 8
  %15 = icmp eq ptr %14, null
  br i1 %15, label %16, label %22

16:                                               ; preds = %3
  invoke void @_ZSt19__throw_logic_errorPKc(ptr noundef @.str.3) #14
          to label %17 unwind label %18

17:                                               ; preds = %16
  unreachable

18:                                               ; preds = %26, %22, %16
  %19 = landingpad { ptr, i32 }
          cleanup
  %20 = extractvalue { ptr, i32 } %19, 0
  store ptr %20, ptr %7, align 8
  %21 = extractvalue { ptr, i32 } %19, 1
  store i32 %21, ptr %8, align 4
  call void @_ZNSt7__cxx1112basic_stringIcSt11char_traitsIcESaIcEE12_Alloc_hiderD2Ev(ptr noundef nonnull align 8 dereferenceable(8) %11) #3
  br label %31

22:                                               ; preds = %3
  %23 = load ptr, ptr %5, align 8
  %24 = load ptr, ptr %5, align 8
  %25 = invoke noundef i64 @_ZNSt11char_traitsIcE6lengthEPKc(ptr noundef %24)
          to label %26 unwind label %18

26:                                               ; preds = %22
  %27 = getelementptr inbounds i8, ptr %23, i64 %25
  store ptr %27, ptr %9, align 8
  %28 = load ptr, ptr %5, align 8
  %29 = load ptr, ptr %9, align 8
  invoke void @_ZNSt7__cxx1112basic_stringIcSt11char_traitsIcESaIcEE12_M_constructIPKcEEvT_S8_St20forward_iterator_tag(ptr noundef nonnull align 8 dereferenceable(32) %10, ptr noundef %28, ptr noundef %29)
          to label %30 unwind label %18

30:                                               ; preds = %26
  ret void

31:                                               ; preds = %18
  %32 = load ptr, ptr %7, align 8
  %33 = load i32, ptr %8, align 4
  %34 = insertvalue { ptr, i32 } poison, ptr %32, 0
  %35 = insertvalue { ptr, i32 } %34, i32 %33, 1
  resume { ptr, i32 } %35
}

; Function Attrs: mustprogress uwtable
define dso_local void @_ZN27cmInstallDirectoryGenerator21GenerateScriptActionsERSo23cmScriptGeneratorIndent(ptr noundef nonnull align 8 dereferenceable(329) %0, ptr noundef nonnull align 8 dereferenceable(8) %1, i32 %2) unnamed_addr #4 align 2 personality ptr @__gxx_personality_v0 {
  %4 = alloca %class.cmScriptGeneratorIndent, align 4
  %5 = alloca ptr, align 8
  %6 = alloca ptr, align 8
  %7 = alloca %class.cmScriptGeneratorIndent, align 4
  %8 = alloca %"class.std::__cxx11::basic_string", align 8
  %9 = alloca %"class.std::allocator", align 1
  %10 = alloca ptr, align 8
  %11 = alloca i32, align 4
  %12 = alloca %class.cmScriptGeneratorIndent, align 4
  %13 = getelementptr inbounds %class.cmScriptGeneratorIndent, ptr %4, i32 0, i32 0
  store i32 %2, ptr %13, align 4
  store ptr %0, ptr %5, align 8
  store ptr %1, ptr %6, align 8
  %14 = load ptr, ptr %5, align 8
  %15 = getelementptr inbounds %class.cmScriptGenerator, ptr %14, i32 0, i32 5
  %16 = load i8, ptr %15, align 8
  %17 = trunc i8 %16 to i1
  br i1 %17, label %18, label %22

18:                                               ; preds = %3
  %19 = load ptr, ptr %6, align 8
  call void @llvm.memcpy.p0.p0.i64(ptr align 4 %7, ptr align 4 %4, i64 4, i1 false)
  %20 = getelementptr inbounds %class.cmScriptGeneratorIndent, ptr %7, i32 0, i32 0
  %21 = load i32, ptr %20, align 4
  call void @_ZN17cmScriptGenerator21GenerateScriptActionsERSo23cmScriptGeneratorIndent(ptr noundef nonnull align 8 dereferenceable(105) %14, ptr noundef nonnull align 8 dereferenceable(8) %19, i32 %21)
  br label %38

22:                                               ; preds = %3
  %23 = load ptr, ptr %6, align 8
  call void @_ZNSaIcEC1Ev(ptr noundef nonnull align 1 dereferenceable(1) %9) #3
  invoke void @_ZNSt7__cxx1112basic_stringIcSt11char_traitsIcESaIcEEC2IS3_EEPKcRKS3_(ptr noundef nonnull align 8 dereferenceable(32) %8, ptr noundef @.str, ptr noundef nonnull align 1 dereferenceable(1) %9)
          to label %24 unwind label %29

24:                                               ; preds = %22
  call void @llvm.memcpy.p0.p0.i64(ptr align 4 %12, ptr align 4 %4, i64 4, i1 false)
  %25 = getelementptr inbounds %class.cmInstallDirectoryGenerator, ptr %14, i32 0, i32 2
  %26 = getelementptr inbounds %class.cmScriptGeneratorIndent, ptr %12, i32 0, i32 0
  %27 = load i32, ptr %26, align 4
  invoke void @_ZN27cmInstallDirectoryGenerator23AddDirectoryInstallRuleERSoRKNSt7__cxx1112basic_stringIcSt11char_traitsIcESaIcEEE23cmScriptGeneratorIndentRKSt6vectorIS6_SaIS6_EE(ptr noundef nonnull align 8 dereferenceable(329) %14, ptr noundef nonnull align 8 dereferenceable(8) %23, ptr noundef nonnull align 8 dereferenceable(32) %8, i32 %27, ptr noundef nonnull align 8 dereferenceable(24) %25)
          to label %28 unwind label %33

28:                                               ; preds = %24
  call void @_ZNSt7__cxx1112basic_stringIcSt11char_traitsIcESaIcEED1Ev(ptr noundef nonnull align 8 dereferenceable(32) %8) #3
  call void @_ZNSaIcED1Ev(ptr noundef nonnull align 1 dereferenceable(1) %9) #3
  br label %38

29:                                               ; preds = %22
  %30 = landingpad { ptr, i32 }
          cleanup
  %31 = extractvalue { ptr, i32 } %30, 0
  store ptr %31, ptr %10, align 8
  %32 = extractvalue { ptr, i32 } %30, 1
  store i32 %32, ptr %11, align 4
  br label %37

33:                                               ; preds = %24
  %34 = landingpad { ptr, i32 }
          cleanup
  %35 = extractvalue { ptr, i32 } %34, 0
  store ptr %35, ptr %10, align 8
  %36 = extractvalue { ptr, i32 } %34, 1
  store i32 %36, ptr %11, align 4
  call void @_ZNSt7__cxx1112basic_stringIcSt11char_traitsIcESaIcEED1Ev(ptr noundef nonnull align 8 dereferenceable(32) %8) #3
  br label %37

37:                                               ; preds = %33, %29
  call void @_ZNSaIcED1Ev(ptr noundef nonnull align 1 dereferenceable(1) %9) #3
  br label %39

38:                                               ; preds = %28, %18
  ret void

39:                                               ; preds = %37
  %40 = load ptr, ptr %10, align 8
  %41 = load i32, ptr %11, align 4
  %42 = insertvalue { ptr, i32 } poison, ptr %40, 0
  %43 = insertvalue { ptr, i32 } %42, i32 %41, 1
  resume { ptr, i32 } %43
}