; Function Attrs: mustprogress uwtable
define dso_local void @_ZN27cmInstallDirectoryGenerator21GenerateScriptActionsERSo23cmScriptGeneratorIndent(ptr noundef nonnull align 8 dereferenceable(329) %0, ptr noundef nonnull align 8 dereferenceable(8) %1, i32 %2) unnamed_addr #3 align 2 personality ptr @__gxx_personality_v0 {
  %4 = alloca %"class.std::__cxx11::basic_string", align 8
  %5 = alloca %"class.std::allocator", align 1
  %6 = getelementptr inbounds i8, ptr %0, i64 104
  %7 = load i8, ptr %6, align 8
  %8 = and i8 %7, 1
  %.not = icmp eq i8 %8, 0
  br i1 %.not, label %10, label %9

9:                                                ; preds = %3
  tail call void @_ZN17cmScriptGenerator21GenerateScriptActionsERSo23cmScriptGeneratorIndent(ptr noundef nonnull align 8 dereferenceable(105) %0, ptr noundef nonnull align 8 dereferenceable(8) %1, i32 %2)
  br label %20

10:                                               ; preds = %3
  call void @_ZNSaIcEC1Ev(ptr noundef nonnull align 1 dereferenceable(1) %5) #13
  %11 = invoke noundef ptr @_ZNSt7__cxx1112basic_stringIcSt11char_traitsIcESaIcEE13_M_local_dataEv(ptr noundef nonnull align 8 dereferenceable(32) %4)
          to label %.noexc unwind label %16

.noexc:                                           ; preds = %10
  invoke void @_ZNSt7__cxx1112basic_stringIcSt11char_traitsIcESaIcEE12_Alloc_hiderC1EPcRKS3_(ptr noundef nonnull align 8 dereferenceable(8) %4, ptr noundef %11, ptr noundef nonnull align 1 dereferenceable(1) %5)
          to label %.noexc9 unwind label %16

.noexc9:                                          ; preds = %.noexc
  invoke void @_ZNSt7__cxx1112basic_stringIcSt11char_traitsIcESaIcEE12_M_constructIPKcEEvT_S8_St20forward_iterator_tag(ptr noundef nonnull align 8 dereferenceable(32) %4, ptr noundef nonnull @.str, ptr noundef nonnull @.str)
          to label %_ZNSt7__cxx1112basic_stringIcSt11char_traitsIcESaIcEEC2IS3_EEPKcRKS3_.exit unwind label %12

12:                                               ; preds = %.noexc9
  %13 = landingpad { ptr, i32 }
          cleanup
  call void @_ZNSaIcED2Ev(ptr noundef nonnull align 1 dereferenceable(1) %4) #13
  br label %.body

_ZNSt7__cxx1112basic_stringIcSt11char_traitsIcESaIcEEC2IS3_EEPKcRKS3_.exit: ; preds = %.noexc9
  %14 = getelementptr inbounds i8, ptr %0, i64 208
  invoke void @_ZN27cmInstallDirectoryGenerator23AddDirectoryInstallRuleERSoRKNSt7__cxx1112basic_stringIcSt11char_traitsIcESaIcEEE23cmScriptGeneratorIndentRKSt6vectorIS6_SaIS6_EE(ptr noundef nonnull align 8 dereferenceable(329) %0, ptr noundef nonnull align 8 dereferenceable(8) %1, ptr noundef nonnull align 8 dereferenceable(32) %4, i32 %2, ptr noundef nonnull align 8 dereferenceable(24) %14)
          to label %15 unwind label %18

15:                                               ; preds = %_ZNSt7__cxx1112basic_stringIcSt11char_traitsIcESaIcEEC2IS3_EEPKcRKS3_.exit
  call void @_ZNSt7__cxx1112basic_stringIcSt11char_traitsIcESaIcEED1Ev(ptr noundef nonnull align 8 dereferenceable(32) %4) #13
  call void @_ZNSaIcED1Ev(ptr noundef nonnull align 1 dereferenceable(1) %5) #13
  br label %20

16:                                               ; preds = %.noexc, %10
  %17 = landingpad { ptr, i32 }
          cleanup
  br label %.body

18:                                               ; preds = %_ZNSt7__cxx1112basic_stringIcSt11char_traitsIcESaIcEEC2IS3_EEPKcRKS3_.exit
  %19 = landingpad { ptr, i32 }
          cleanup
  call void @_ZNSt7__cxx1112basic_stringIcSt11char_traitsIcESaIcEED1Ev(ptr noundef nonnull align 8 dereferenceable(32) %4) #13
  br label %.body

.body:                                            ; preds = %16, %12, %18
  %.pn = phi { ptr, i32 } [ %19, %18 ], [ %17, %16 ], [ %13, %12 ]
  call void @_ZNSaIcED1Ev(ptr noundef nonnull align 1 dereferenceable(1) %5) #13
  resume { ptr, i32 } %.pn

20:                                               ; preds = %15, %9
  ret void
}